target datalayout = "e-m:e-p270:32:32-p271:32:32-p272:64:64-i64:64-i128:128-f80:128-n8:16:32:64-S128"
target triple = "x86_64-pc-linux-gnu"

%class.XVirtualMemory = type { i64, i64 }
%class.XPage = type { i8, i8, i32, %class.XVirtualMemory, i64, %class.XLiveMap, i64, %class.XPhysicalMemory, %class.XListNode }
%class.XLiveMap = type { i32, i32, i64, i64, i64, %class.XBitMap, i64 }
%class.XBitMap = type { %class.CHeapBitMap.base, [7 x i8] }
%class.CHeapBitMap.base = type <{ %class.GrowableBitMap, i8 }>
%class.GrowableBitMap = type { %class.BitMap }
%class.BitMap = type { ptr, i64 }
%class.XPhysicalMemory = type { %class.GrowableArrayCHeap }
%class.GrowableArrayCHeap = type { %class.GrowableArrayWithAllocator }
%class.GrowableArrayWithAllocator = type { %class.GrowableArrayView }
%class.GrowableArrayView = type { %class.GrowableArrayBase, ptr }
%class.GrowableArrayBase = type { i32, i32 }
%class.XListNode = type { ptr, ptr }

@g_assert_poison = external global ptr, align 8
@.str.7 = private unnamed_addr constant [33 x i8] c"src/hotspot/share/gc/x/xPage.cpp\00", align 1
@.str.8 = private unnamed_addr constant [58 x i8] c"guarantee(live_objects == _livemap.live_objects()) failed\00", align 1
@.str.9 = private unnamed_addr constant [31 x i8] c"Invalid number of live objects\00", align 1
@.str.10 = private unnamed_addr constant [54 x i8] c"guarantee(live_bytes == _livemap.live_bytes()) failed\00", align 1
@.str.11 = private unnamed_addr constant [29 x i8] c"Invalid number of live bytes\00", align 1

; Function Attrs: mustprogress nounwind uwtable
define linkonce_odr hidden noundef i64 @_ZNK8XLiveMap10live_bytesEv(ptr noundef nonnull align 8 dereferenceable(64) %0) #1 comdat align 2 {
  %2 = alloca ptr, align 8
  store ptr %0, ptr %2, align 8
  %3 = load ptr, ptr %2, align 8
  %4 = getelementptr inbounds %class.XLiveMap, ptr %3, i32 0, i32 2
  %5 = load volatile i64, ptr %4, align 8
  ret i64 %5
}

; Function Attrs: mustprogress nounwind uwtable
define linkonce_odr hidden noundef i32 @_ZNK8XLiveMap12live_objectsEv(ptr noundef nonnull align 8 dereferenceable(64) %0) #1 comdat align 2 {
  %2 = alloca ptr, align 8
  store ptr %0, ptr %2, align 8
  %3 = load ptr, ptr %2, align 8
  %4 = getelementptr inbounds %class.XLiveMap, ptr %3, i32 0, i32 1
  %5 = load volatile i32, ptr %4, align 4
  ret i32 %5
}

; Function Attrs: mustprogress nounwind uwtable
define hidden void @_ZNK5XPage11verify_liveEjm(ptr noundef nonnull align 8 dereferenceable(136) %0, i32 noundef %1, i64 noundef %2) #1 align 2 {
  %4 = alloca ptr, align 8
  %5 = alloca i32, align 4
  %6 = alloca i64, align 8
  store ptr %0, ptr %4, align 8
  store i32 %1, ptr %5, align 4
  store i64 %2, ptr %6, align 8
  %7 = load ptr, ptr %4, align 8
  br label %8

8:                                                ; preds = %3
  %9 = load i32, ptr %5, align 4
  %10 = getelementptr inbounds %class.XPage, ptr %7, i32 0, i32 5
  %11 = call noundef i32 @_ZNK8XLiveMap12live_objectsEv(ptr noundef nonnull align 8 dereferenceable(64) %10)
  %12 = icmp eq i32 %9, %11
  br i1 %12, label %15, label %13

13:                                               ; preds = %8
  %14 = load ptr, ptr @g_assert_poison, align 8
  store i8 88, ptr %14, align 1
  call void (ptr, i32, ptr, ptr, ...) @_Z15report_vm_errorPKciS0_S0_z(ptr noundef @.str.7, i32 noundef 133, ptr noundef @.str.8, ptr noundef @.str.9) #7
  unreachable

15:                                               ; preds = %8
  br label %16

16:                                               ; preds = %15
  br label %17

17:                                               ; preds = %16
  %18 = load i64, ptr %6, align 8
  %19 = getelementptr inbounds %class.XPage, ptr %7, i32 0, i32 5
  %20 = call noundef i64 @_ZNK8XLiveMap10live_bytesEv(ptr noundef nonnull align 8 dereferenceable(64) %19)
  %21 = icmp eq i64 %18, %20
  br i1 %21, label %24, label %22

22:                                               ; preds = %17
  %23 = load ptr, ptr @g_assert_poison, align 8
  store i8 88, ptr %23, align 1
  call void (ptr, i32, ptr, ptr, ...) @_Z15report_vm_errorPKciS0_S0_z(ptr noundef @.str.7, i32 noundef 134, ptr noundef @.str.10, ptr noundef @.str.11) #7
  unreachable

24:                                               ; preds = %17
  br label %25

25:                                               ; preds = %24
  ret void
}