; Function Attrs: mustprogress nounwind uwtable
define hidden void @_ZNK5XPage11verify_liveEjm(ptr noundef nonnull align 8 dereferenceable(136) %0, i32 noundef %1, i64 noundef %2) local_unnamed_addr #0 align 2 {
  %4 = getelementptr inbounds i8, ptr %0, i64 36
  %5 = load volatile i32, ptr %4, align 4
  %6 = icmp eq i32 %5, %1
  br i1 %6, label %9, label %7

7:                                                ; preds = %3
  %8 = load ptr, ptr @g_assert_poison, align 8
  store i8 88, ptr %8, align 1
  tail call void (ptr, i32, ptr, ptr, ...) @_Z15report_vm_errorPKciS0_S0_z(ptr noundef nonnull @.str.7, i32 noundef 133, ptr noundef nonnull @.str.8, ptr noundef nonnull @.str.9) #9
  unreachable

9:                                                ; preds = %3
  %10 = getelementptr inbounds i8, ptr %0, i64 40
  %11 = load volatile i64, ptr %10, align 8
  %12 = icmp eq i64 %11, %2
  br i1 %12, label %15, label %13

13:                                               ; preds = %9
  %14 = load ptr, ptr @g_assert_poison, align 8
  store i8 88, ptr %14, align 1
  tail call void (ptr, i32, ptr, ptr, ...) @_Z15report_vm_errorPKciS0_S0_z(ptr noundef nonnull @.str.7, i32 noundef 134, ptr noundef nonnull @.str.10, ptr noundef nonnull @.str.11) #9
  unreachable

15:                                               ; preds = %9
  ret void
}